; Function Attrs: mustprogress uwtable
define hidden noundef zeroext i1 @_ZN18OpenImageIO_v2_6_08DDSInput13readimg_tilesEv(ptr noundef nonnull align 8 dereferenceable(448) %this) local_unnamed_addr #11 align 2 {
entry:
  %m_buf = getelementptr inbounds i8, ptr %this, i64 216
  %_M_finish.i = getelementptr inbounds i8, ptr %this, i64 224
  %0 = load ptr, ptr %_M_finish.i, align 8
  %1 = load ptr, ptr %m_buf, align 8
  %sub.ptr.lhs.cast.i = ptrtoint ptr %0 to i64
  %sub.ptr.rhs.cast.i = ptrtoint ptr %1 to i64
  %sub.ptr.sub.i = sub i64 %sub.ptr.lhs.cast.i, %sub.ptr.rhs.cast.i
  %m_spec = getelementptr inbounds i8, ptr %this, i64 8
  %call2 = tail call noundef i64 @_ZNK18OpenImageIO_v2_6_09ImageSpec10tile_bytesEb(ptr noundef nonnull align 8 dereferenceable(160) %m_spec, i1 noundef zeroext false) #26
  %cmp.not = icmp ult i64 %sub.ptr.sub.i, %call2
  br i1 %cmp.not, label %cond.false, label %cond.end

cond.false:                                       ; preds = %entry
  %2 = load ptr, ptr @stderr, align 8
  %call3 = tail call i32 (ptr, ptr, ...) @fprintf(ptr noundef %2, ptr noundef nonnull @.str.35, ptr noundef nonnull @.str.36, i32 noundef 865, ptr noundef nonnull @__FUNCTION__._ZN18OpenImageIO_v2_6_08DDSInput13readimg_tilesEv, ptr noundef nonnull @.str.37) #31
  br label %cond.end

cond.end:                                         ; preds = %entry, %cond.false
  %3 = load ptr, ptr %m_buf, align 8
  %tile_width = getelementptr inbounds i8, ptr %this, i64 56
  %4 = load i32, ptr %tile_width, align 8
  %tile_height = getelementptr inbounds i8, ptr %this, i64 60
  %5 = load i32, ptr %tile_height, align 4
  %tile_depth = getelementptr inbounds i8, ptr %this, i64 64
  %6 = load i32, ptr %tile_depth, align 8
  %call9 = tail call noundef zeroext i1 @_ZN18OpenImageIO_v2_6_08DDSInput16internal_readimgEPhiii(ptr noundef nonnull align 8 dereferenceable(448) %this, ptr noundef nonnull %3, i32 noundef %4, i32 noundef %5, i32 noundef %6)
  ret i1 %call9
}